target datalayout = "e-m:e-p270:32:32-p271:32:32-p272:64:64-i64:64-i128:128-f80:128-n8:16:32:64-S128"
target triple = "x86_64-pc-linux-gnu"

%"class.std::weak_ordering" = type { i8 }
%"class.std::tuple" = type { %"struct.std::_Tuple_impl" }
%"struct.std::_Tuple_impl" = type { %"struct.std::_Tuple_impl.12", %"struct.std::_Head_base.13" }
%"struct.std::_Tuple_impl.12" = type { %"struct.std::_Head_base" }
%"struct.std::_Head_base" = type { ptr }
%"struct.std::_Head_base.13" = type { ptr }
%"struct.nix::DerivedPathMap<std::set<std::__cxx11::basic_string<char>>>::ChildNode" = type { %"class.std::set", %"class.std::map" }
%"class.std::set" = type { %"class.std::_Rb_tree" }
%"class.std::_Rb_tree" = type { %"struct.std::_Rb_tree<std::__cxx11::basic_string<char>, std::__cxx11::basic_string<char>, std::_Identity<std::__cxx11::basic_string<char>>, std::less<std::__cxx11::basic_string<char>>>::_Rb_tree_impl" }
%"struct.std::_Rb_tree<std::__cxx11::basic_string<char>, std::__cxx11::basic_string<char>, std::_Identity<std::__cxx11::basic_string<char>>, std::less<std::__cxx11::basic_string<char>>>::_Rb_tree_impl" = type { %"struct.std::_Rb_tree_key_compare", %"struct.std::_Rb_tree_header" }
%"struct.std::_Rb_tree_key_compare" = type { %"struct.std::less" }
%"struct.std::less" = type { i8 }
%"struct.std::_Rb_tree_header" = type { %"struct.std::_Rb_tree_node_base", i64 }
%"struct.std::_Rb_tree_node_base" = type { i32, ptr, ptr, ptr }
%"class.std::map" = type { %"class.std::_Rb_tree.4" }
%"class.std::_Rb_tree.4" = type { %"struct.std::_Rb_tree<std::__cxx11::basic_string<char>, std::pair<const std::__cxx11::basic_string<char>, nix::DerivedPathMap<std::set<std::__cxx11::basic_string<char>>>::ChildNode>, std::_Select1st<std::pair<const std::__cxx11::basic_string<char>, nix::DerivedPathMap<std::set<std::__cxx11::basic_string<char>>>::ChildNode>>, std::less<std::__cxx11::basic_string<char>>>::_Rb_tree_impl" }
%"struct.std::_Rb_tree<std::__cxx11::basic_string<char>, std::pair<const std::__cxx11::basic_string<char>, nix::DerivedPathMap<std::set<std::__cxx11::basic_string<char>>>::ChildNode>, std::_Select1st<std::pair<const std::__cxx11::basic_string<char>, nix::DerivedPathMap<std::set<std::__cxx11::basic_string<char>>>::ChildNode>>, std::less<std::__cxx11::basic_string<char>>>::_Rb_tree_impl" = type { %"struct.std::_Rb_tree_key_compare", %"struct.std::_Rb_tree_header" }
%"struct.std::__cmp_cat::__unspec" = type { i8 }

; Function Attrs: mustprogress nounwind uwtable
define linkonce_odr void @_ZNSt10_Head_baseILm1ERKSt3mapINSt7__cxx1112basic_stringIcSt11char_traitsIcESaIcEEEN3nix14DerivedPathMapISt3setIS6_St4lessIS6_ESaIS6_EEE9ChildNodeESB_SaISt4pairIKS6_SF_EEELb0EEC2ESM_(ptr noundef nonnull align 8 dereferenceable(8) %0, ptr noundef nonnull align 8 dereferenceable(48) %1) unnamed_addr #2 comdat align 2 {
  %3 = alloca ptr, align 8
  %4 = alloca ptr, align 8
  store ptr %0, ptr %3, align 8
  store ptr %1, ptr %4, align 8
  %5 = load ptr, ptr %3, align 8
  %6 = getelementptr inbounds %"struct.std::_Head_base", ptr %5, i32 0, i32 0
  %7 = load ptr, ptr %4, align 8
  store ptr %7, ptr %6, align 8
  ret void
}

; Function Attrs: mustprogress nounwind uwtable
define linkonce_odr void @_ZNSt10_Head_baseILm0ERKSt3setINSt7__cxx1112basic_stringIcSt11char_traitsIcESaIcEEESt4lessIS6_ESaIS6_EELb0EEC2ESC_(ptr noundef nonnull align 8 dereferenceable(8) %0, ptr noundef nonnull align 8 dereferenceable(48) %1) unnamed_addr #2 comdat align 2 {
  %3 = alloca ptr, align 8
  %4 = alloca ptr, align 8
  store ptr %0, ptr %3, align 8
  store ptr %1, ptr %4, align 8
  %5 = load ptr, ptr %3, align 8
  %6 = getelementptr inbounds %"struct.std::_Head_base.13", ptr %5, i32 0, i32 0
  %7 = load ptr, ptr %4, align 8
  store ptr %7, ptr %6, align 8
  ret void
}

; Function Attrs: mustprogress uwtable
define linkonce_odr void @_ZNSt11_Tuple_implILm1EJRKSt3mapINSt7__cxx1112basic_stringIcSt11char_traitsIcESaIcEEEN3nix14DerivedPathMapISt3setIS6_St4lessIS6_ESaIS6_EEE9ChildNodeESB_SaISt4pairIKS6_SF_EEEEEC2ESM_(ptr noundef nonnull align 8 dereferenceable(8) %0, ptr noundef nonnull align 8 dereferenceable(48) %1) unnamed_addr #3 comdat align 2 {
  %3 = alloca ptr, align 8
  %4 = alloca ptr, align 8
  store ptr %0, ptr %3, align 8
  store ptr %1, ptr %4, align 8
  %5 = load ptr, ptr %3, align 8
  %6 = load ptr, ptr %4, align 8
  call void @_ZNSt10_Head_baseILm1ERKSt3mapINSt7__cxx1112basic_stringIcSt11char_traitsIcESaIcEEEN3nix14DerivedPathMapISt3setIS6_St4lessIS6_ESaIS6_EEE9ChildNodeESB_SaISt4pairIKS6_SF_EEELb0EEC2ESM_(ptr noundef nonnull align 8 dereferenceable(8) %5, ptr noundef nonnull align 8 dereferenceable(48) %6)
  ret void
}

; Function Attrs: noreturn nounwind uwtable
define linkonce_odr hidden void @__clang_call_terminate(ptr noundef %0) #4 comdat {
  %2 = call ptr @__cxa_begin_catch(ptr %0) #1
  call void @_ZSt9terminatev() #13
  unreachable
}

; Function Attrs: mustprogress uwtable
define linkonce_odr void @_ZNSt11_Tuple_implILm0EJRKSt3setINSt7__cxx1112basic_stringIcSt11char_traitsIcESaIcEEESt4lessIS6_ESaIS6_EERKSt3mapIS6_N3nix14DerivedPathMapISA_E9ChildNodeES8_SaISt4pairIKS6_SH_EEEEEC2ESC_SO_(ptr noundef nonnull align 8 dereferenceable(16) %0, ptr noundef nonnull align 8 dereferenceable(48) %1, ptr noundef nonnull align 8 dereferenceable(48) %2) unnamed_addr #3 comdat align 2 {
  %4 = alloca ptr, align 8
  %5 = alloca ptr, align 8
  %6 = alloca ptr, align 8
  store ptr %0, ptr %4, align 8
  store ptr %1, ptr %5, align 8
  store ptr %2, ptr %6, align 8
  %7 = load ptr, ptr %4, align 8
  %8 = load ptr, ptr %6, align 8
  call void @_ZNSt11_Tuple_implILm1EJRKSt3mapINSt7__cxx1112basic_stringIcSt11char_traitsIcESaIcEEEN3nix14DerivedPathMapISt3setIS6_St4lessIS6_ESaIS6_EEE9ChildNodeESB_SaISt4pairIKS6_SF_EEEEEC2ESM_(ptr noundef nonnull align 8 dereferenceable(8) %7, ptr noundef nonnull align 8 dereferenceable(48) %8)
  %9 = getelementptr inbounds i8, ptr %7, i64 8
  %10 = load ptr, ptr %5, align 8
  call void @_ZNSt10_Head_baseILm0ERKSt3setINSt7__cxx1112basic_stringIcSt11char_traitsIcESaIcEEESt4lessIS6_ESaIS6_EELb0EEC2ESC_(ptr noundef nonnull align 8 dereferenceable(8) %9, ptr noundef nonnull align 8 dereferenceable(48) %10)
  ret void
}

; Function Attrs: mustprogress nounwind uwtable
define linkonce_odr void @_ZNSt5tupleIJRKSt3setINSt7__cxx1112basic_stringIcSt11char_traitsIcESaIcEEESt4lessIS6_ESaIS6_EERKSt3mapIS6_N3nix14DerivedPathMapISA_E9ChildNodeES8_SaISt4pairIKS6_SH_EEEEEC2ILb1ETnNSt9enable_ifIXclsr4_TCCIXT_EEE29__is_implicitly_constructibleISC_SO_EEEbE4typeELb1EEESC_SO_(ptr noundef nonnull align 8 dereferenceable(16) %0, ptr noundef nonnull align 8 dereferenceable(48) %1, ptr noundef nonnull align 8 dereferenceable(48) %2) unnamed_addr #2 comdat align 2 personality ptr @__gxx_personality_v0 {
  %4 = alloca ptr, align 8
  %5 = alloca ptr, align 8
  %6 = alloca ptr, align 8
  store ptr %0, ptr %4, align 8
  store ptr %1, ptr %5, align 8
  store ptr %2, ptr %6, align 8
  %7 = load ptr, ptr %4, align 8
  %8 = load ptr, ptr %5, align 8
  %9 = load ptr, ptr %6, align 8
  invoke void @_ZNSt11_Tuple_implILm0EJRKSt3setINSt7__cxx1112basic_stringIcSt11char_traitsIcESaIcEEESt4lessIS6_ESaIS6_EERKSt3mapIS6_N3nix14DerivedPathMapISA_E9ChildNodeES8_SaISt4pairIKS6_SH_EEEEEC2ESC_SO_(ptr noundef nonnull align 8 dereferenceable(16) %7, ptr noundef nonnull align 8 dereferenceable(48) %8, ptr noundef nonnull align 8 dereferenceable(48) %9)
          to label %10 unwind label %11

10:                                               ; preds = %3
  ret void

11:                                               ; preds = %3
  %12 = landingpad { ptr, i32 }
          catch ptr null
  %13 = extractvalue { ptr, i32 } %12, 0
  call void @__clang_call_terminate(ptr %13) #13
  unreachable
}

; Function Attrs: mustprogress nounwind uwtable
define linkonce_odr noundef zeroext i1 @_ZStltSt13weak_orderingNSt9__cmp_cat8__unspecE(i8 %0) #2 comdat {
  %2 = alloca %"class.std::weak_ordering", align 1
  %3 = getelementptr inbounds %"class.std::weak_ordering", ptr %2, i32 0, i32 0
  store i8 %0, ptr %3, align 1
  %4 = getelementptr inbounds %"class.std::weak_ordering", ptr %2, i32 0, i32 0
  %5 = load i8, ptr %4, align 1
  %6 = sext i8 %5 to i32
  %7 = icmp slt i32 %6, 0
  ret i1 %7
}

; Function Attrs: mustprogress nounwind uwtable
define linkonce_odr void @_ZNSt9__cmp_cat8__unspecC2EPS0_(ptr noundef nonnull align 1 dereferenceable(1) %0, ptr noundef %1) unnamed_addr #2 comdat align 2 {
  %3 = alloca ptr, align 8
  %4 = alloca ptr, align 8
  store ptr %0, ptr %3, align 8
  store ptr %1, ptr %4, align 8
  ret void
}

; Function Attrs: mustprogress uwtable
define linkonce_odr i8 @_ZStssIJRKSt3setINSt7__cxx1112basic_stringIcSt11char_traitsIcESaIcEEESt4lessIS6_ESaIS6_EERKSt3mapIS6_N3nix14DerivedPathMapISA_E9ChildNodeES8_SaISt4pairIKS6_SH_EEEEJSC_SO_EENSt26common_comparison_categoryIJDpDTclL_ZNSt8__detail11__synth3wayEEclsr3stdE7declvalIRT_EEclsr3stdE7declvalIRT0_EEEEEE4typeERKSt5tupleIJDpSR_EERKSZ_IJDpST_EE(ptr noundef nonnull align 8 dereferenceable(16) %0, ptr noundef nonnull align 8 dereferenceable(16) %1) #3 comdat {
  %3 = alloca %"class.std::weak_ordering", align 1
  %4 = alloca ptr, align 8
  %5 = alloca ptr, align 8
  store ptr %0, ptr %4, align 8
  store ptr %1, ptr %5, align 8
  %6 = load ptr, ptr %4, align 8
  %7 = load ptr, ptr %5, align 8
  %8 = call i8 @_ZSt11__tuple_cmpISt13weak_orderingSt5tupleIJRKSt3setINSt7__cxx1112basic_stringIcSt11char_traitsIcESaIcEEESt4lessIS8_ESaIS8_EERKSt3mapIS8_N3nix14DerivedPathMapISC_E9ChildNodeESA_SaISt4pairIKS8_SJ_EEEEESR_Lm0EJLm1EEET_RKT0_RKT1_St16integer_sequenceImJXT2_EXspT3_EEE(ptr noundef nonnull align 8 dereferenceable(16) %6, ptr noundef nonnull align 8 dereferenceable(16) %7)
  %9 = getelementptr inbounds %"class.std::weak_ordering", ptr %3, i32 0, i32 0
  store i8 %8, ptr %9, align 1
  %10 = getelementptr inbounds %"class.std::weak_ordering", ptr %3, i32 0, i32 0
  %11 = load i8, ptr %10, align 1
  ret i8 %11
}

; Function Attrs: mustprogress nounwind uwtable
define linkonce_odr void @_ZSt3tieIJKSt3setINSt7__cxx1112basic_stringIcSt11char_traitsIcESaIcEEESt4lessIS6_ESaIS6_EEKSt3mapIS6_N3nix14DerivedPathMapISA_E9ChildNodeES8_SaISt4pairIKS6_SG_EEEEESt5tupleIJDpRT_EESQ_(ptr dead_on_unwind noalias writable sret(%"class.std::tuple") align 8 %0, ptr noundef nonnull align 8 dereferenceable(48) %1, ptr noundef nonnull align 8 dereferenceable(48) %2) #2 comdat {
  %4 = alloca ptr, align 8
  %5 = alloca ptr, align 8
  %6 = alloca ptr, align 8
  store ptr %0, ptr %4, align 8
  store ptr %1, ptr %5, align 8
  store ptr %2, ptr %6, align 8
  %7 = load ptr, ptr %5, align 8
  %8 = load ptr, ptr %6, align 8
  call void @_ZNSt5tupleIJRKSt3setINSt7__cxx1112basic_stringIcSt11char_traitsIcESaIcEEESt4lessIS6_ESaIS6_EERKSt3mapIS6_N3nix14DerivedPathMapISA_E9ChildNodeES8_SaISt4pairIKS6_SH_EEEEEC2ILb1ETnNSt9enable_ifIXclsr4_TCCIXT_EEE29__is_implicitly_constructibleISC_SO_EEEbE4typeELb1EEESC_SO_(ptr noundef nonnull align 8 dereferenceable(16) %0, ptr noundef nonnull align 8 dereferenceable(48) %7, ptr noundef nonnull align 8 dereferenceable(48) %8) #1
  ret void
}

; Function Attrs: mustprogress uwtable
define noundef zeroext i1 @_ZNK3nix14DerivedPathMapISt3setINSt7__cxx1112basic_stringIcSt11char_traitsIcESaIcEEESt4lessIS7_ESaIS7_EEE9ChildNodeltERKSD_(ptr noundef nonnull align 8 dereferenceable(96) %0, ptr noundef nonnull align 8 dereferenceable(96) %1) #3 align 2 {
  %3 = alloca ptr, align 8
  %4 = alloca ptr, align 8
  %5 = alloca ptr, align 8
  %6 = alloca %"class.std::tuple", align 8
  %7 = alloca %"class.std::tuple", align 8
  %8 = alloca %"class.std::weak_ordering", align 1
  %9 = alloca %"struct.std::__cmp_cat::__unspec", align 1
  store ptr %0, ptr %3, align 8
  store ptr %1, ptr %4, align 8
  %10 = load ptr, ptr %3, align 8
  store ptr %10, ptr %5, align 8
  %11 = load ptr, ptr %5, align 8
  %12 = getelementptr inbounds %"struct.nix::DerivedPathMap<std::set<std::__cxx11::basic_string<char>>>::ChildNode", ptr %11, i32 0, i32 0
  %13 = load ptr, ptr %5, align 8
  %14 = getelementptr inbounds %"struct.nix::DerivedPathMap<std::set<std::__cxx11::basic_string<char>>>::ChildNode", ptr %13, i32 0, i32 1
  call void @_ZSt3tieIJKSt3setINSt7__cxx1112basic_stringIcSt11char_traitsIcESaIcEEESt4lessIS6_ESaIS6_EEKSt3mapIS6_N3nix14DerivedPathMapISA_E9ChildNodeES8_SaISt4pairIKS6_SG_EEEEESt5tupleIJDpRT_EESQ_(ptr dead_on_unwind writable sret(%"class.std::tuple") align 8 %6, ptr noundef nonnull align 8 dereferenceable(48) %12, ptr noundef nonnull align 8 dereferenceable(48) %14) #1
  %15 = load ptr, ptr %4, align 8
  store ptr %15, ptr %5, align 8
  %16 = load ptr, ptr %5, align 8
  %17 = getelementptr inbounds %"struct.nix::DerivedPathMap<std::set<std::__cxx11::basic_string<char>>>::ChildNode", ptr %16, i32 0, i32 0
  %18 = load ptr, ptr %5, align 8
  %19 = getelementptr inbounds %"struct.nix::DerivedPathMap<std::set<std::__cxx11::basic_string<char>>>::ChildNode", ptr %18, i32 0, i32 1
  call void @_ZSt3tieIJKSt3setINSt7__cxx1112basic_stringIcSt11char_traitsIcESaIcEEESt4lessIS6_ESaIS6_EEKSt3mapIS6_N3nix14DerivedPathMapISA_E9ChildNodeES8_SaISt4pairIKS6_SG_EEEEESt5tupleIJDpRT_EESQ_(ptr dead_on_unwind writable sret(%"class.std::tuple") align 8 %7, ptr noundef nonnull align 8 dereferenceable(48) %17, ptr noundef nonnull align 8 dereferenceable(48) %19) #1
  %20 = call i8 @_ZStssIJRKSt3setINSt7__cxx1112basic_stringIcSt11char_traitsIcESaIcEEESt4lessIS6_ESaIS6_EERKSt3mapIS6_N3nix14DerivedPathMapISA_E9ChildNodeES8_SaISt4pairIKS6_SH_EEEEJSC_SO_EENSt26common_comparison_categoryIJDpDTclL_ZNSt8__detail11__synth3wayEEclsr3stdE7declvalIRT_EEclsr3stdE7declvalIRT0_EEEEEE4typeERKSt5tupleIJDpSR_EERKSZ_IJDpST_EE(ptr noundef nonnull align 8 dereferenceable(16) %6, ptr noundef nonnull align 8 dereferenceable(16) %7)
  %21 = getelementptr inbounds %"class.std::weak_ordering", ptr %8, i32 0, i32 0
  store i8 %20, ptr %21, align 1
  call void @_ZNSt9__cmp_cat8__unspecC2EPS0_(ptr noundef nonnull align 1 dereferenceable(1) %9, ptr noundef null) #1
  %22 = getelementptr inbounds %"class.std::weak_ordering", ptr %8, i32 0, i32 0
  %23 = load i8, ptr %22, align 1
  %24 = call noundef zeroext i1 @_ZStltSt13weak_orderingNSt9__cmp_cat8__unspecE(i8 %23) #1
  ret i1 %24
}