; Function Attrs: mustprogress uwtable
define noundef zeroext i1 @_ZNK3nix14DerivedPathMapISt3setINSt7__cxx1112basic_stringIcSt11char_traitsIcESaIcEEESt4lessIS7_ESaIS7_EEE9ChildNodeltERKSD_(ptr noundef nonnull align 8 dereferenceable(96) %0, ptr noundef nonnull align 8 dereferenceable(96) %1) local_unnamed_addr #2 align 2 personality ptr @__gxx_personality_v0 {
  %3 = alloca %"class.std::tuple", align 8
  %4 = alloca %"class.std::tuple", align 8
  %5 = getelementptr inbounds i8, ptr %0, i64 48
  store ptr %5, ptr %3, align 8, !alias.scope !10
  %6 = getelementptr inbounds i8, ptr %3, i64 8
  store ptr %0, ptr %6, align 8, !alias.scope !10
  %7 = getelementptr inbounds i8, ptr %1, i64 48
  store ptr %7, ptr %4, align 8, !alias.scope !13
  %8 = getelementptr inbounds i8, ptr %4, i64 8
  store ptr %1, ptr %8, align 8, !alias.scope !13
  %9 = call i8 @_ZSt11__tuple_cmpISt13weak_orderingSt5tupleIJRKSt3setINSt7__cxx1112basic_stringIcSt11char_traitsIcESaIcEEESt4lessIS8_ESaIS8_EERKSt3mapIS8_N3nix14DerivedPathMapISC_E9ChildNodeESA_SaISt4pairIKS8_SJ_EEEEESR_Lm0EJLm1EEET_RKT0_RKT1_St16integer_sequenceImJXT2_EXspT3_EEE(ptr noundef nonnull align 8 dereferenceable(16) %3, ptr noundef nonnull align 8 dereferenceable(16) %4)
  %10 = icmp slt i8 %9, 0
  ret i1 %10
}